target datalayout = "e-m:e-p270:32:32-p271:32:32-p272:64:64-i64:64-i128:128-f80:128-n8:16:32:64-S128"
target triple = "x86_64-pc-linux-gnu"

@stderr = external global ptr, align 8
@.str = private unnamed_addr constant [58 x i8] c"integer overflow when trying to allocate %zu * %zu bytes\0A\00", align 1
@.str.1 = private unnamed_addr constant [49 x i8] c"out of memory when trying to allocate %zu bytes\0A\00", align 1

; Function Attrs: inlinehint nounwind uwtable
define internal ptr @gv_calloc(i64 noundef %0, i64 noundef %1) #4 {
  %3 = alloca i64, align 8
  %4 = alloca i64, align 8
  %5 = alloca ptr, align 8
  store i64 %0, ptr %3, align 8, !tbaa !11
  store i64 %1, ptr %4, align 8, !tbaa !11
  %6 = load i64, ptr %3, align 8, !tbaa !11
  %7 = icmp ugt i64 %6, 0
  br i1 %7, label %8, label %18

8:                                                ; preds = %2
  %9 = load i64, ptr %3, align 8, !tbaa !11
  %10 = udiv i64 -1, %9
  %11 = load i64, ptr %4, align 8, !tbaa !11
  %12 = icmp ult i64 %10, %11
  br i1 %12, label %13, label %18

13:                                               ; preds = %8
  %14 = load ptr, ptr @stderr, align 8, !tbaa !42
  %15 = load i64, ptr %3, align 8, !tbaa !11
  %16 = load i64, ptr %4, align 8, !tbaa !11
  %17 = call i32 (ptr, ptr, ...) @fprintf(ptr noundef %14, ptr noundef @.str, i64 noundef %15, i64 noundef %16) #9
  call void @graphviz_exit(i32 noundef 1) #10
  unreachable

18:                                               ; preds = %8, %2
  call void @llvm.lifetime.start.p0(i64 8, ptr %5) #9
  %19 = load i64, ptr %3, align 8, !tbaa !11
  %20 = load i64, ptr %4, align 8, !tbaa !11
  %21 = call noalias ptr @calloc(i64 noundef %19, i64 noundef %20) #11
  store ptr %21, ptr %5, align 8, !tbaa !3
  %22 = load i64, ptr %3, align 8, !tbaa !11
  %23 = icmp ugt i64 %22, 0
  br i1 %23, label %24, label %36

24:                                               ; preds = %18
  %25 = load i64, ptr %4, align 8, !tbaa !11
  %26 = icmp ugt i64 %25, 0
  br i1 %26, label %27, label %36

27:                                               ; preds = %24
  %28 = load ptr, ptr %5, align 8, !tbaa !3
  %29 = icmp eq ptr %28, null
  br i1 %29, label %30, label %36

30:                                               ; preds = %27
  %31 = load ptr, ptr @stderr, align 8, !tbaa !42
  %32 = load i64, ptr %3, align 8, !tbaa !11
  %33 = load i64, ptr %4, align 8, !tbaa !11
  %34 = mul i64 %32, %33
  %35 = call i32 (ptr, ptr, ...) @fprintf(ptr noundef %31, ptr noundef @.str.1, i64 noundef %34) #9
  call void @graphviz_exit(i32 noundef 1) #10
  unreachable

36:                                               ; preds = %27, %24, %18
  %37 = load ptr, ptr %5, align 8, !tbaa !3
  call void @llvm.lifetime.end.p0(i64 8, ptr %5) #9
  ret ptr %37
}

; Function Attrs: nounwind uwtable
define internal ptr @compute_apsp_dijkstra(ptr noundef %0, i32 noundef %1) #0 {
  %3 = alloca ptr, align 8
  %4 = alloca i32, align 4
  %5 = alloca i32, align 4
  %6 = alloca ptr, align 8
  %7 = alloca ptr, align 8
  store ptr %0, ptr %3, align 8, !tbaa !3
  store i32 %1, ptr %4, align 4, !tbaa !7
  call void @llvm.lifetime.start.p0(i64 4, ptr %5) #9
  call void @llvm.lifetime.start.p0(i64 8, ptr %6) #9
  %8 = load i32, ptr %4, align 4, !tbaa !7
  %9 = load i32, ptr %4, align 4, !tbaa !7
  %10 = mul nsw i32 %8, %9
  %11 = sext i32 %10 to i64
  %12 = call ptr @gv_calloc(i64 noundef %11, i64 noundef 4)
  store ptr %12, ptr %6, align 8, !tbaa !9
  call void @llvm.lifetime.start.p0(i64 8, ptr %7) #9
  %13 = load i32, ptr %4, align 4, !tbaa !7
  %14 = sext i32 %13 to i64
  %15 = call ptr @gv_calloc(i64 noundef %14, i64 noundef 8)
  store ptr %15, ptr %7, align 8, !tbaa !22
  store i32 0, ptr %5, align 4, !tbaa !7
  br label %16

16:                                               ; preds = %31, %2
  %17 = load i32, ptr %5, align 4, !tbaa !7
  %18 = load i32, ptr %4, align 4, !tbaa !7
  %19 = icmp slt i32 %17, %18
  br i1 %19, label %20, label %34

20:                                               ; preds = %16
  %21 = load ptr, ptr %6, align 8, !tbaa !9
  %22 = load i32, ptr %5, align 4, !tbaa !7
  %23 = load i32, ptr %4, align 4, !tbaa !7
  %24 = mul nsw i32 %22, %23
  %25 = sext i32 %24 to i64
  %26 = getelementptr inbounds i32, ptr %21, i64 %25
  %27 = load ptr, ptr %7, align 8, !tbaa !22
  %28 = load i32, ptr %5, align 4, !tbaa !7
  %29 = sext i32 %28 to i64
  %30 = getelementptr inbounds ptr, ptr %27, i64 %29
  store ptr %26, ptr %30, align 8, !tbaa !9
  br label %31

31:                                               ; preds = %20
  %32 = load i32, ptr %5, align 4, !tbaa !7
  %33 = add nsw i32 %32, 1
  store i32 %33, ptr %5, align 4, !tbaa !7
  br label %16, !llvm.loop !24

34:                                               ; preds = %16
  store i32 0, ptr %5, align 4, !tbaa !7
  br label %35

35:                                               ; preds = %48, %34
  %36 = load i32, ptr %5, align 4, !tbaa !7
  %37 = load i32, ptr %4, align 4, !tbaa !7
  %38 = icmp slt i32 %36, %37
  br i1 %38, label %39, label %51

39:                                               ; preds = %35
  %40 = load i32, ptr %5, align 4, !tbaa !7
  %41 = load ptr, ptr %3, align 8, !tbaa !3
  %42 = load i32, ptr %4, align 4, !tbaa !7
  %43 = load ptr, ptr %7, align 8, !tbaa !22
  %44 = load i32, ptr %5, align 4, !tbaa !7
  %45 = sext i32 %44 to i64
  %46 = getelementptr inbounds ptr, ptr %43, i64 %45
  %47 = load ptr, ptr %46, align 8, !tbaa !9
  call void @dijkstra(i32 noundef %40, ptr noundef %41, i32 noundef %42, ptr noundef %47)
  br label %48

48:                                               ; preds = %39
  %49 = load i32, ptr %5, align 4, !tbaa !7
  %50 = add nsw i32 %49, 1
  store i32 %50, ptr %5, align 4, !tbaa !7
  br label %35, !llvm.loop !25

51:                                               ; preds = %35
  %52 = load ptr, ptr %7, align 8, !tbaa !22
  call void @llvm.lifetime.end.p0(i64 8, ptr %7) #9
  call void @llvm.lifetime.end.p0(i64 8, ptr %6) #9
  call void @llvm.lifetime.end.p0(i64 4, ptr %5) #9
  ret ptr %52
}