; Function Attrs: nounwind uwtable
define internal fastcc noalias noundef ptr @compute_apsp_dijkstra(ptr noundef %0, i32 noundef %1) unnamed_addr #2 {
  %3 = mul nsw i32 %1, %1
  %4 = zext nneg i32 %3 to i64
  %.not.i = icmp eq i32 %1, 0
  br i1 %.not.i, label %.preheader.thread, label %5

5:                                                ; preds = %2
  %6 = tail call noalias ptr @calloc(i64 noundef %4, i64 noundef 4) #17
  %7 = icmp eq ptr %6, null
  br i1 %7, label %8, label %12

8:                                                ; preds = %5
  %9 = load ptr, ptr @stderr, align 8, !tbaa !19
  %10 = shl nuw nsw i64 %4, 2
  %11 = tail call i32 (ptr, ptr, ...) @fprintf(ptr noundef %9, ptr noundef nonnull @.str.1, i64 noundef %10) #18
  tail call fastcc void @graphviz_exit() #19
  unreachable

12:                                               ; preds = %5
  %13 = sext i32 %1 to i64
  %mul.ov.i23 = icmp slt i32 %1, 0
  br i1 %mul.ov.i23, label %14, label %17

14:                                               ; preds = %12
  %15 = load ptr, ptr @stderr, align 8, !tbaa !19
  %16 = tail call i32 (ptr, ptr, ...) @fprintf(ptr noundef %15, ptr noundef nonnull @.str, i64 noundef %13, i64 noundef 8) #18
  tail call fastcc void @graphviz_exit() #19
  unreachable

17:                                               ; preds = %12
  %18 = tail call noalias ptr @calloc(i64 noundef %13, i64 noundef 8) #17
  %19 = icmp eq ptr %18, null
  br i1 %19, label %20, label %.lr.ph.preheader

20:                                               ; preds = %17
  %21 = load ptr, ptr @stderr, align 8, !tbaa !19
  %22 = shl nuw nsw i64 %13, 3
  %23 = tail call i32 (ptr, ptr, ...) @fprintf(ptr noundef %21, ptr noundef nonnull @.str.1, i64 noundef %22) #18
  tail call fastcc void @graphviz_exit() #19
  unreachable

.preheader.thread:                                ; preds = %2
  %24 = tail call noalias ptr @calloc(i64 noundef 0, i64 noundef 8) #17
  br label %._crit_edge

.lr.ph.preheader:                                 ; preds = %17
  %25 = zext nneg i32 %1 to i64
  br label %.lr.ph

.lr.ph29.preheader:                               ; preds = %.lr.ph
  %wide.trip.count34 = zext nneg i32 %1 to i64
  br label %.lr.ph29

.lr.ph:                                           ; preds = %.lr.ph.preheader, %.lr.ph
  %indvars.iv = phi i64 [ 0, %.lr.ph.preheader ], [ %indvars.iv.next, %.lr.ph ]
  %26 = mul nuw nsw i64 %indvars.iv, %25
  %27 = getelementptr inbounds nuw i32, ptr %6, i64 %26
  %28 = getelementptr inbounds nuw ptr, ptr %18, i64 %indvars.iv
  store ptr %27, ptr %28, align 8, !tbaa !21
  %indvars.iv.next = add nuw nsw i64 %indvars.iv, 1
  %exitcond.not = icmp eq i64 %indvars.iv.next, %25
  br i1 %exitcond.not, label %.lr.ph29.preheader, label %.lr.ph, !llvm.loop !24

.lr.ph29:                                         ; preds = %.lr.ph29.preheader, %.lr.ph29
  %indvars.iv31 = phi i64 [ 0, %.lr.ph29.preheader ], [ %indvars.iv.next32, %.lr.ph29 ]
  %29 = getelementptr inbounds nuw ptr, ptr %18, i64 %indvars.iv31
  %30 = load ptr, ptr %29, align 8, !tbaa !21
  %31 = trunc nuw nsw i64 %indvars.iv31 to i32
  tail call void @dijkstra(i32 noundef %31, ptr noundef %0, i32 noundef %1, ptr noundef %30) #20
  %indvars.iv.next32 = add nuw nsw i64 %indvars.iv31, 1
  %exitcond35.not = icmp eq i64 %indvars.iv.next32, %wide.trip.count34
  br i1 %exitcond35.not, label %._crit_edge, label %.lr.ph29, !llvm.loop !25

._crit_edge:                                      ; preds = %.lr.ph29, %.preheader.thread
  %32 = phi ptr [ %24, %.preheader.thread ], [ %18, %.lr.ph29 ]
  ret ptr %32
}